target datalayout = "e-m:e-p270:32:32-p271:32:32-p272:64:64-i64:64-i128:128-f80:128-n8:16:32:64-S128"
target triple = "x86_64-pc-linux-gnu"

%struct.code = type { i8, i8, i16 }
%struct.z_stream_s = type { ptr, i32, i64, ptr, i32, i64, ptr, ptr, ptr, ptr, ptr, i32, i64, i64 }
%struct.inflate_state = type { ptr, i32, i32, i32, i32, i32, i32, i64, i64, ptr, i32, i32, i32, i32, ptr, i64, i32, i32, i32, i32, ptr, ptr, i32, i32, i32, i32, i32, i32, ptr, [320 x i16], [288 x i16], [1444 x %struct.code], i32, i32, i32 }

; Function Attrs: nounwind uwtable
define internal i32 @inflateStateCheck(ptr noundef %0) #0 {
  %2 = alloca i32, align 4
  %3 = alloca ptr, align 8
  %4 = alloca ptr, align 8
  store ptr %0, ptr %3, align 8
  %5 = load ptr, ptr %3, align 8
  %6 = icmp eq ptr %5, null
  br i1 %6, label %17, label %7

7:                                                ; preds = %1
  %8 = load ptr, ptr %3, align 8
  %9 = getelementptr inbounds %struct.z_stream_s, ptr %8, i32 0, i32 8
  %10 = load ptr, ptr %9, align 8
  %11 = icmp eq ptr %10, null
  br i1 %11, label %17, label %12

12:                                               ; preds = %7
  %13 = load ptr, ptr %3, align 8
  %14 = getelementptr inbounds %struct.z_stream_s, ptr %13, i32 0, i32 9
  %15 = load ptr, ptr %14, align 8
  %16 = icmp eq ptr %15, null
  br i1 %16, label %17, label %18

17:                                               ; preds = %12, %7, %1
  store i32 1, ptr %2, align 4
  br label %42

18:                                               ; preds = %12
  %19 = load ptr, ptr %3, align 8
  %20 = getelementptr inbounds %struct.z_stream_s, ptr %19, i32 0, i32 7
  %21 = load ptr, ptr %20, align 8
  store ptr %21, ptr %4, align 8
  %22 = load ptr, ptr %4, align 8
  %23 = icmp eq ptr %22, null
  br i1 %23, label %40, label %24

24:                                               ; preds = %18
  %25 = load ptr, ptr %4, align 8
  %26 = getelementptr inbounds %struct.inflate_state, ptr %25, i32 0, i32 0
  %27 = load ptr, ptr %26, align 8
  %28 = load ptr, ptr %3, align 8
  %29 = icmp ne ptr %27, %28
  br i1 %29, label %40, label %30

30:                                               ; preds = %24
  %31 = load ptr, ptr %4, align 8
  %32 = getelementptr inbounds %struct.inflate_state, ptr %31, i32 0, i32 1
  %33 = load i32, ptr %32, align 8
  %34 = icmp ult i32 %33, 16180
  br i1 %34, label %40, label %35

35:                                               ; preds = %30
  %36 = load ptr, ptr %4, align 8
  %37 = getelementptr inbounds %struct.inflate_state, ptr %36, i32 0, i32 1
  %38 = load i32, ptr %37, align 8
  %39 = icmp ugt i32 %38, 16211
  br i1 %39, label %40, label %41

40:                                               ; preds = %35, %30, %24, %18
  store i32 1, ptr %2, align 4
  br label %42

41:                                               ; preds = %35
  store i32 0, ptr %2, align 4
  br label %42

42:                                               ; preds = %41, %40, %17
  %43 = load i32, ptr %2, align 4
  ret i32 %43
}

; Function Attrs: nounwind uwtable
define dso_local i64 @cm_zlib_inflateCodesUsed(ptr noundef %0) #0 {
  %2 = alloca i64, align 8
  %3 = alloca ptr, align 8
  %4 = alloca ptr, align 8
  store ptr %0, ptr %3, align 8
  %5 = load ptr, ptr %3, align 8
  %6 = call i32 @inflateStateCheck(ptr noundef %5)
  %7 = icmp ne i32 %6, 0
  br i1 %7, label %8, label %9

8:                                                ; preds = %1
  store i64 -1, ptr %2, align 8
  br label %23

9:                                                ; preds = %1
  %10 = load ptr, ptr %3, align 8
  %11 = getelementptr inbounds %struct.z_stream_s, ptr %10, i32 0, i32 7
  %12 = load ptr, ptr %11, align 8
  store ptr %12, ptr %4, align 8
  %13 = load ptr, ptr %4, align 8
  %14 = getelementptr inbounds %struct.inflate_state, ptr %13, i32 0, i32 28
  %15 = load ptr, ptr %14, align 8
  %16 = load ptr, ptr %4, align 8
  %17 = getelementptr inbounds %struct.inflate_state, ptr %16, i32 0, i32 31
  %18 = getelementptr inbounds [1444 x %struct.code], ptr %17, i64 0, i64 0
  %19 = ptrtoint ptr %15 to i64
  %20 = ptrtoint ptr %18 to i64
  %21 = sub i64 %19, %20
  %22 = sdiv exact i64 %21, 4
  store i64 %22, ptr %2, align 8
  br label %23

23:                                               ; preds = %9, %8
  %24 = load i64, ptr %2, align 8
  ret i64 %24
}