; Function Attrs: mustprogress nofree norecurse nosync nounwind willreturn memory(read, inaccessiblemem: none) uwtable
define dso_local range(i64 -2305843009213693952, 2305843009213693952) i64 @cm_zlib_inflateCodesUsed(ptr noundef readonly %0) local_unnamed_addr #5 {
  %2 = icmp eq ptr %0, null
  br i1 %2, label %inflateStateCheck.exit.thread, label %3

3:                                                ; preds = %1
  %4 = getelementptr inbounds nuw i8, ptr %0, i64 64
  %5 = load ptr, ptr %4, align 8
  %6 = icmp eq ptr %5, null
  br i1 %6, label %inflateStateCheck.exit.thread, label %7

7:                                                ; preds = %3
  %8 = getelementptr inbounds nuw i8, ptr %0, i64 72
  %9 = load ptr, ptr %8, align 8
  %10 = icmp eq ptr %9, null
  br i1 %10, label %inflateStateCheck.exit.thread, label %11

11:                                               ; preds = %7
  %12 = getelementptr inbounds nuw i8, ptr %0, i64 56
  %13 = load ptr, ptr %12, align 8
  %14 = icmp eq ptr %13, null
  br i1 %14, label %inflateStateCheck.exit.thread, label %15

15:                                               ; preds = %11
  %16 = load ptr, ptr %13, align 8
  %.not.i = icmp eq ptr %16, %0
  br i1 %.not.i, label %inflateStateCheck.exit, label %inflateStateCheck.exit.thread

inflateStateCheck.exit:                           ; preds = %15
  %17 = getelementptr inbounds nuw i8, ptr %13, i64 8
  %18 = load i32, ptr %17, align 8
  %19 = add i32 %18, -16180
  %or.cond.i = icmp ult i32 %19, 32
  br i1 %or.cond.i, label %20, label %inflateStateCheck.exit.thread

20:                                               ; preds = %inflateStateCheck.exit
  %21 = getelementptr inbounds nuw i8, ptr %13, i64 144
  %22 = load ptr, ptr %21, align 8
  %23 = getelementptr inbounds nuw i8, ptr %13, i64 1368
  %24 = ptrtoint ptr %22 to i64
  %25 = ptrtoint ptr %23 to i64
  %26 = sub i64 %24, %25
  %27 = ashr exact i64 %26, 2
  br label %inflateStateCheck.exit.thread

inflateStateCheck.exit.thread:                    ; preds = %11, %15, %1, %3, %7, %inflateStateCheck.exit, %20
  %.0 = phi i64 [ %27, %20 ], [ -1, %inflateStateCheck.exit ], [ -1, %7 ], [ -1, %3 ], [ -1, %1 ], [ -1, %15 ], [ -1, %11 ]
  ret i64 %.0
}